target datalayout = "e-m:e-p270:32:32-p271:32:32-p272:64:64-i64:64-i128:128-f80:128-n8:16:32:64-S128"
target triple = "x86_64-unknown-linux-gnu"

%class.ast_manager = type { %class.reslimit, %class.small_object_allocator, %class.family_manager, %class.parray_manager, %class.dependency_manager, %class.parray_manager.10, %class.ptr_vector.13, i32, i8, %class.ast_table, %class.obj_map, %class.id_gen, %class.id_gen, ptr, ptr, ptr, ptr, ptr, i32, i8, [3 x i8], %class.u_map, ptr, i8, i8, ptr, %class.symbol, %class.obj_map.21, ptr }
%class.reslimit = type { %"struct.std::atomic", i8, i64, i64, %class.svector, %class.ptr_vector }
%"struct.std::atomic" = type { %"struct.std::__atomic_base" }
%"struct.std::__atomic_base" = type { i32 }
%class.svector = type { %class.vector }
%class.vector = type { ptr }
%class.ptr_vector = type { %class.vector.0 }
%class.vector.0 = type { ptr }
%class.small_object_allocator = type { [32 x ptr], [32 x ptr], i64 }
%class.family_manager = type { i32, %class.symbol_table, %class.svector.4 }
%class.symbol_table = type { %class.core_hashtable, %class.vector.1, %class.svector.2 }
%class.core_hashtable = type <{ ptr, i32, i32, i32, [4 x i8] }>
%class.vector.1 = type { ptr }
%class.svector.2 = type { %class.vector.3 }
%class.vector.3 = type { ptr }
%class.svector.4 = type { %class.vector.5 }
%class.vector.5 = type { ptr }
%class.parray_manager = type { ptr, ptr, %class.ptr_vector.6, %class.ptr_vector.6 }
%class.ptr_vector.6 = type { %class.vector.7 }
%class.vector.7 = type { ptr }
%class.dependency_manager = type { ptr, ptr, %class.ptr_vector.8 }
%class.ptr_vector.8 = type { %class.vector.9 }
%class.vector.9 = type { ptr }
%class.parray_manager.10 = type { ptr, ptr, %class.ptr_vector.11, %class.ptr_vector.11 }
%class.ptr_vector.11 = type { %class.vector.12 }
%class.vector.12 = type { ptr }
%class.ptr_vector.13 = type { %class.vector.14 }
%class.vector.14 = type { ptr }
%class.ast_table = type { %class.chashtable }
%class.chashtable = type { ptr, i32, i32, i32, i32, i32, i32, i32, ptr, ptr, ptr }
%class.obj_map = type { %class.core_hashtable.15 }
%class.core_hashtable.15 = type <{ ptr, i32, i32, i32, [4 x i8] }>
%class.id_gen = type { i32, %class.svector.17 }
%class.svector.17 = type { %class.vector.18 }
%class.vector.18 = type { ptr }
%class.u_map = type { %class.map }
%class.map = type { %class.table2map }
%class.table2map = type { %class.core_hashtable.19 }
%class.core_hashtable.19 = type <{ ptr, i32, i32, i32, [4 x i8] }>
%class.symbol = type { ptr }
%class.obj_map.21 = type { %class.core_hashtable.22 }
%class.core_hashtable.22 = type <{ ptr, i32, i32, i32, [4 x i8] }>

@_ZN10func_entryC1ER11ast_managerjPKP4exprS3_ = hidden unnamed_addr alias void (ptr, ptr, i32, ptr, ptr), ptr @_ZN10func_entryC2ER11ast_managerjPKP4exprS3_

; Function Attrs: mustprogress nounwind uwtable
define linkonce_odr hidden noundef i32 @_ZN10func_entry12get_obj_sizeEj(i32 noundef %arity) #5 comdat align 2 {
entry:
  %arity.addr = alloca i32, align 4
  store i32 %arity, ptr %arity.addr, align 4
  %0 = load i32, ptr %arity.addr, align 4
  %conv = zext i32 %0 to i64
  %mul = mul i64 %conv, 8
  %add = add i64 16, %mul
  %conv1 = trunc i64 %add to i32
  ret i32 %conv1
}

; Function Attrs: mustprogress nounwind uwtable
define linkonce_odr hidden noundef nonnull align 8 dereferenceable(520) ptr @_ZN11ast_manager13get_allocatorEv(ptr noundef nonnull align 8 dereferenceable(976) %this) #5 comdat align 2 {
entry:
  %this.addr = alloca ptr, align 8
  store ptr %this, ptr %this.addr, align 8
  %this1 = load ptr, ptr %this.addr, align 8
  %m_alloc = getelementptr inbounds %class.ast_manager, ptr %this1, i32 0, i32 1
  ret ptr %m_alloc
}

; Function Attrs: mustprogress uwtable
define hidden noundef ptr @_ZN10func_entry2mkER11ast_managerjPKP4exprS3_(ptr noundef nonnull align 8 dereferenceable(976) %m, i32 noundef %arity, ptr noundef %args, ptr noundef %result) #4 align 2 {
entry:
  %m.addr = alloca ptr, align 8
  %arity.addr = alloca i32, align 4
  %args.addr = alloca ptr, align 8
  %result.addr = alloca ptr, align 8
  %allocator = alloca ptr, align 8
  %sz = alloca i32, align 4
  %mem = alloca ptr, align 8
  store ptr %m, ptr %m.addr, align 8
  store i32 %arity, ptr %arity.addr, align 4
  store ptr %args, ptr %args.addr, align 8
  store ptr %result, ptr %result.addr, align 8
  %0 = load ptr, ptr %m.addr, align 8
  %call = call noundef nonnull align 8 dereferenceable(520) ptr @_ZN11ast_manager13get_allocatorEv(ptr noundef nonnull align 8 dereferenceable(976) %0)
  store ptr %call, ptr %allocator, align 8
  %1 = load i32, ptr %arity.addr, align 4
  %call1 = call noundef i32 @_ZN10func_entry12get_obj_sizeEj(i32 noundef %1)
  store i32 %call1, ptr %sz, align 4
  %2 = load ptr, ptr %allocator, align 8
  %3 = load i32, ptr %sz, align 4
  %conv = zext i32 %3 to i64
  %call2 = call noundef ptr @_ZN22small_object_allocator8allocateEm(ptr noundef nonnull align 8 dereferenceable(520) %2, i64 noundef %conv)
  store ptr %call2, ptr %mem, align 8
  %4 = load ptr, ptr %mem, align 8
  %5 = load ptr, ptr %m.addr, align 8
  %6 = load i32, ptr %arity.addr, align 4
  %7 = load ptr, ptr %args.addr, align 8
  %8 = load ptr, ptr %result.addr, align 8
  call void @_ZN10func_entryC1ER11ast_managerjPKP4exprS3_(ptr noundef nonnull align 8 dereferenceable(16) %4, ptr noundef nonnull align 8 dereferenceable(976) %5, i32 noundef %6, ptr noundef %7, ptr noundef %8)
  ret ptr %4
}