; Function Attrs: mustprogress uwtable
define hidden noundef ptr @_ZN10func_entry2mkER11ast_managerjPKP4exprS3_(ptr noundef nonnull align 8 dereferenceable(976) %m, i32 noundef %arity, ptr nocapture noundef readonly %args, ptr noundef %result) local_unnamed_addr #3 align 2 {
entry:
  %m_alloc.i = getelementptr inbounds i8, ptr %m, i64 40
  %mul.i = shl i32 %arity, 3
  %add.i = add i32 %mul.i, 16
  %conv = zext i32 %add.i to i64
  %call2 = tail call noundef ptr @_ZN22small_object_allocator8allocateEm(ptr noundef nonnull align 8 dereferenceable(520) %m_alloc.i, i64 noundef %conv)
  store i8 1, ptr %call2, align 8
  %m_result.i = getelementptr inbounds i8, ptr %call2, i64 8
  store ptr %result, ptr %m_result.i, align 8
  %tobool.not.i.i = icmp eq ptr %result, null
  br i1 %tobool.not.i.i, label %_ZN11ast_manager7inc_refEP3ast.exit.i, label %if.then.i.i

if.then.i.i:                                      ; preds = %entry
  %m_ref_count.i.i.i = getelementptr inbounds i8, ptr %result, i64 8
  %0 = load i32, ptr %m_ref_count.i.i.i, align 4
  %inc.i.i.i = add i32 %0, 1
  store i32 %inc.i.i.i, ptr %m_ref_count.i.i.i, align 4
  br label %_ZN11ast_manager7inc_refEP3ast.exit.i

_ZN11ast_manager7inc_refEP3ast.exit.i:            ; preds = %if.then.i.i, %entry
  %cmp14.not.i = icmp eq i32 %arity, 0
  br i1 %cmp14.not.i, label %_ZN10func_entryC2ER11ast_managerjPKP4exprS3_.exit, label %for.body.lr.ph.i

for.body.lr.ph.i:                                 ; preds = %_ZN11ast_manager7inc_refEP3ast.exit.i
  %m_args.i = getelementptr inbounds i8, ptr %call2, i64 16
  %wide.trip.count.i = zext i32 %arity to i64
  br label %for.body.i

for.body.i:                                       ; preds = %_ZN11ast_manager7inc_refEP3ast.exit13.i, %for.body.lr.ph.i
  %indvars.iv.i = phi i64 [ 0, %for.body.lr.ph.i ], [ %indvars.iv.next.i, %_ZN11ast_manager7inc_refEP3ast.exit13.i ]
  %arrayidx.i = getelementptr inbounds ptr, ptr %args, i64 %indvars.iv.i
  %1 = load ptr, ptr %arrayidx.i, align 8
  %call.i = tail call noundef zeroext i1 @_ZNK11ast_manager8is_valueEP4expr(ptr noundef nonnull align 8 dereferenceable(976) %m, ptr noundef %1)
  br i1 %call.i, label %if.end.i, label %if.then.i

if.then.i:                                        ; preds = %for.body.i
  store i8 0, ptr %call2, align 8
  br label %if.end.i

if.end.i:                                         ; preds = %if.then.i, %for.body.i
  %tobool.not.i9.i = icmp eq ptr %1, null
  br i1 %tobool.not.i9.i, label %_ZN11ast_manager7inc_refEP3ast.exit13.i, label %if.then.i10.i

if.then.i10.i:                                    ; preds = %if.end.i
  %m_ref_count.i.i11.i = getelementptr inbounds i8, ptr %1, i64 8
  %2 = load i32, ptr %m_ref_count.i.i11.i, align 4
  %inc.i.i12.i = add i32 %2, 1
  store i32 %inc.i.i12.i, ptr %m_ref_count.i.i11.i, align 4
  br label %_ZN11ast_manager7inc_refEP3ast.exit13.i

_ZN11ast_manager7inc_refEP3ast.exit13.i:          ; preds = %if.then.i10.i, %if.end.i
  %arrayidx4.i = getelementptr inbounds [0 x ptr], ptr %m_args.i, i64 0, i64 %indvars.iv.i
  store ptr %1, ptr %arrayidx4.i, align 8
  %indvars.iv.next.i = add nuw nsw i64 %indvars.iv.i, 1
  %exitcond.not.i = icmp eq i64 %indvars.iv.next.i, %wide.trip.count.i
  br i1 %exitcond.not.i, label %_ZN10func_entryC2ER11ast_managerjPKP4exprS3_.exit, label %for.body.i, !llvm.loop !4

_ZN10func_entryC2ER11ast_managerjPKP4exprS3_.exit: ; preds = %_ZN11ast_manager7inc_refEP3ast.exit13.i, %_ZN11ast_manager7inc_refEP3ast.exit.i
  ret ptr %call2
}